; Function Attrs: mustprogress nofree norecurse nosync nounwind willreturn memory(argmem: read) uwtable
define noundef signext i8 @_ZNK6icu_759ScriptSet7isEmptyEv(ptr nocapture noundef nonnull readonly align 4 dereferenceable(28) %this) local_unnamed_addr #5 align 2 {
entry:
  br label %for.body

for.cond:                                         ; preds = %for.body
  %indvars.iv.next = add nuw nsw i64 %indvars.iv, 1
  %exitcond.not = icmp eq i64 %indvars.iv.next, 7
  br i1 %exitcond.not, label %return, label %for.body, !llvm.loop !13

for.body:                                         ; preds = %entry, %for.cond
  %indvars.iv = phi i64 [ 0, %entry ], [ %indvars.iv.next, %for.cond ]
  %arrayidx = getelementptr inbounds [7 x i32], ptr %this, i64 0, i64 %indvars.iv
  %0 = load i32, ptr %arrayidx, align 4
  %cmp2.not = icmp eq i32 %0, 0
  br i1 %cmp2.not, label %for.cond, label %return

return:                                           ; preds = %for.cond, %for.body
  %retval.0 = phi i8 [ 0, %for.body ], [ 1, %for.cond ]
  ret i8 %retval.0
}